target datalayout = "e-m:e-p270:32:32-p271:32:32-p272:64:64-i64:64-i128:128-f80:128-n8:16:32:64-S128"
target triple = "x86_64-pc-linux-gnu"

%struct.redisServer = type { i32, i64, ptr, ptr, ptr, i32, i32, i32, i32, i32, ptr, ptr, ptr, ptr, ptr, i32, i32, i32, i32, i64, i32, i32, i32, i32, ptr, i32, i32, [41 x i8], i32, i64, i32, i32, i32, ptr, ptr, i32, i32, i64, ptr, ptr, ptr, ptr, [2 x i32], i32, i32, i32, i32, i32, i32, [16 x ptr], i32, ptr, ptr, i32, [8 x %struct.connListener], i32, %struct.connListener, ptr, ptr, ptr, ptr, ptr, ptr, ptr, ptr, ptr, ptr, i32, ptr, i32, ptr, [3 x %struct.pause_event], [256 x i8], ptr, i64, i32, i32, [128 x i32], i32, i32, i64, i32, i32, i32, i32, i32, i64, i64, i64, i64, i64, i64, i64, i64, i64, i64, double, i64, i64, i64, i64, i64, i64, i64, i64, i64, i64, i64, i64, i64, i64, i64, i64, i64, i64, i64, i64, i64, double, i64, i64, i64, i64, i64, ptr, i64, i64, i64, %struct.malloc_stats, i64, i64, i64, i64, i64, i64, i64, i64, i64, i64, i64, i64, double, [4 x i64], i64, i64, i64, i64, [128 x i64], [128 x i64], i64, i64, [7 x %struct.anon], i64, i64, i64, i64, i64, i64, [4 x %struct.durationStats], i32, i32, i32, i32, i32, i32, i32, i32, i32, i32, i32, i32, i64, i32, i32, i32, i32, i64, i64, i32, i32, i32, i32, i32, ptr, [3 x %struct.clientBufferLimitsConfig], i32, i32, i32, ptr, i32, i32, i32, i32, i32, i32, ptr, ptr, i32, i32, i64, i64, i64, i64, i64, i32, i32, ptr, i32, i32, i64, i64, i64, i64, i64, i32, i32, i64, i32, i32, i32, i32, i32, i32, i32, i32, ptr, i32, i64, i64, i64, i64, i32, ptr, i32, ptr, i32, i32, i32, i64, i64, i64, i64, i32, i32, i32, i32, i32, i32, ptr, i32, i32, ptr, i32, i32, i32, [2 x i32], i32, %struct.redisOpArray, i32, ptr, i32, ptr, i32, i32, i32, i32, i32, i32, i32, [41 x i8], [41 x i8], i64, i64, i64, i64, i32, i32, ptr, i64, i64, %struct.replDataBuf, i64, i64, i32, i32, i32, i32, i32, i32, i32, i32, i32, i64, ptr, i64, ptr, ptr, ptr, i32, i32, ptr, ptr, i32, i32, i32, i64, i64, i64, i64, ptr, ptr, i32, ptr, i64, i32, i32, i32, i64, i32, i32, i32, i32, ptr, i32, i32, [41 x i8], i64, i32, ptr, i32, i32, i64, i64, i32, i32, i32, i32, i32, i64, [3 x i32], i32, i32, i32, [10 x i32], ptr, ptr, i32, i64, ptr, ptr, i32, i32, i32, i32, i64, i64, i64, i64, i64, i64, i64, i64, i64, i64, i32, i32, i64, i64, i32, i64, i64, i64, i64, i64, ptr, ptr, i32, ptr, i32, i32, i32, i32, i64, i64, ptr, ptr, i32, i32, i32, i32, i32, ptr, ptr, ptr, i32, i32, i32, i32, i32, i32, i32, i64, i32, i32, i64, i32, i32, i32, i32, i32, i32, i32, i64, ptr, ptr, i64, ptr, i32, %struct.aclInfo, i32, i64, i32, i32, i32, %struct.redisTLSContextConfig, ptr, ptr, ptr, ptr, ptr, i64, i32, ptr, i32, i32, i32, i64, i32, ptr }
%struct.connListener = type { [16 x i32], i32, ptr, i32, i32, ptr, ptr }
%struct.pause_event = type { i32, i64 }
%struct.malloc_stats = type { i64, i64, i64, i64, i64, i64, i64, i64, i64, i64, i64 }
%struct.anon = type { i64, i64, [16 x i64], i32 }
%struct.durationStats = type { i64, i64, i64 }
%struct.clientBufferLimitsConfig = type { i64, i64, i64 }
%struct.redisOpArray = type { ptr, i32, i32 }
%struct.replDataBuf = type { ptr, i64, i64, i64, i64 }
%struct.aclInfo = type { i64, i64, i64, i64 }
%struct.redisTLSContextConfig = type { ptr, ptr, ptr, ptr, ptr, ptr, ptr, ptr, ptr, ptr, ptr, ptr, i32, i32, i32, i32 }
%struct.client = type { i64, i64, ptr, i8, i8, i8, i8, i32, ptr, ptr, ptr, ptr, ptr, i64, i64, i32, ptr, i32, i32, ptr, i64, ptr, ptr, ptr, ptr, ptr, i32, i32, i64, ptr, i64, ptr, i64, i64, i64, i32, ptr, i64, i64, i32, i32, i32, i32, i64, i64, ptr, i64, i64, i64, i64, i64, i64, i64, i64, [41 x i8], i32, ptr, i32, i32, i64, %struct.multiState, %struct.blockingState, i64, ptr, ptr, ptr, ptr, ptr, ptr, ptr, ptr, ptr, ptr, ptr, ptr, ptr, ptr, i64, ptr, i64, i32, ptr, ptr, ptr, i64, %struct.listNode, i64, i64, i32, i64, ptr }
%struct.multiState = type { ptr, i32, i32, i32, i64, i32 }
%struct.blockingState = type { i32, i64, i32, ptr, i32, i32, i64, ptr, ptr, i64 }
%struct.listNode = type { ptr, ptr, ptr }
%struct.list = type { ptr, ptr, ptr, ptr, ptr, i64 }

@.str.1 = private unnamed_addr constant [10 x i8] c"blocked.c\00", align 1
@server = external global %struct.redisServer, align 8
@.str.3 = private unnamed_addr constant [11 x i8] c"ln != NULL\00", align 1

; Function Attrs: nounwind uwtable
define dso_local void @processUnblockedClients() #0 {
  %1 = alloca ptr, align 8
  %2 = alloca ptr, align 8
  call void @llvm.lifetime.start.p0(i64 8, ptr %1) #8
  call void @llvm.lifetime.start.p0(i64 8, ptr %2) #8
  br label %3

3:                                                ; preds = %59, %46, %0
  %4 = load ptr, ptr getelementptr inbounds nuw (%struct.redisServer, ptr @server, i32 0, i32 344), align 8, !tbaa !73
  %5 = getelementptr inbounds nuw %struct.list, ptr %4, i32 0, i32 5
  %6 = load i64, ptr %5, align 8, !tbaa !74
  %7 = icmp ne i64 %6, 0
  br i1 %7, label %8, label %62

8:                                                ; preds = %3
  %9 = load ptr, ptr getelementptr inbounds nuw (%struct.redisServer, ptr @server, i32 0, i32 344), align 8, !tbaa !73
  %10 = getelementptr inbounds nuw %struct.list, ptr %9, i32 0, i32 0
  %11 = load ptr, ptr %10, align 8, !tbaa !76
  store ptr %11, ptr %1, align 8, !tbaa !77
  %12 = load ptr, ptr %1, align 8, !tbaa !77
  %13 = icmp ne ptr %12, null
  %14 = xor i1 %13, true
  %15 = xor i1 %14, true
  %16 = zext i1 %15 to i32
  %17 = sext i32 %16 to i64
  %18 = call i64 @llvm.expect.i64(i64 %17, i64 1)
  %19 = icmp ne i64 %18, 0
  br i1 %19, label %20, label %21

20:                                               ; preds = %8
  br label %23

21:                                               ; preds = %8
  call void @_serverAssert(ptr noundef @.str.3, ptr noundef @.str.1, i32 noundef 111)
  call void @abort() #7
  unreachable

22:                                               ; No predecessors!
  br label %23

23:                                               ; preds = %22, %20
  %24 = load ptr, ptr %1, align 8, !tbaa !77
  %25 = getelementptr inbounds nuw %struct.listNode, ptr %24, i32 0, i32 2
  %26 = load ptr, ptr %25, align 8, !tbaa !78
  store ptr %26, ptr %2, align 8, !tbaa !5
  %27 = load ptr, ptr getelementptr inbounds nuw (%struct.redisServer, ptr @server, i32 0, i32 344), align 8, !tbaa !73
  %28 = load ptr, ptr %1, align 8, !tbaa !77
  call void @listDelNode(ptr noundef %27, ptr noundef %28)
  %29 = load ptr, ptr %2, align 8, !tbaa !5
  %30 = getelementptr inbounds nuw %struct.client, ptr %29, i32 0, i32 1
  %31 = load i64, ptr %30, align 8, !tbaa !37
  %32 = and i64 %31, -129
  store i64 %32, ptr %30, align 8, !tbaa !37
  %33 = load ptr, ptr %2, align 8, !tbaa !5
  %34 = getelementptr inbounds nuw %struct.client, ptr %33, i32 0, i32 1
  %35 = load i64, ptr %34, align 8, !tbaa !37
  %36 = and i64 %35, 134217728
  %37 = icmp ne i64 %36, 0
  br i1 %37, label %38, label %47

38:                                               ; preds = %23
  %39 = load ptr, ptr %2, align 8, !tbaa !5
  %40 = getelementptr inbounds nuw %struct.client, ptr %39, i32 0, i32 1
  %41 = load i64, ptr %40, align 8, !tbaa !37
  %42 = and i64 %41, 16
  %43 = icmp ne i64 %42, 0
  br i1 %43, label %46, label %44

44:                                               ; preds = %38
  %45 = load ptr, ptr %2, align 8, !tbaa !5
  call void @moduleCallCommandUnblockedHandler(ptr noundef %45)
  br label %46

46:                                               ; preds = %44, %38
  br label %3, !llvm.loop !79

47:                                               ; preds = %23
  %48 = load ptr, ptr %2, align 8, !tbaa !5
  %49 = getelementptr inbounds nuw %struct.client, ptr %48, i32 0, i32 1
  %50 = load i64, ptr %49, align 8, !tbaa !37
  %51 = and i64 %50, 16
  %52 = icmp ne i64 %51, 0
  br i1 %52, label %59, label %53

53:                                               ; preds = %47
  %54 = load ptr, ptr %2, align 8, !tbaa !5
  %55 = call i32 @processPendingCommandAndInputBuffer(ptr noundef %54)
  %56 = icmp eq i32 %55, -1
  br i1 %56, label %57, label %58

57:                                               ; preds = %53
  store ptr null, ptr %2, align 8, !tbaa !5
  br label %58

58:                                               ; preds = %57, %53
  br label %59

59:                                               ; preds = %58, %47
  %60 = load ptr, ptr %2, align 8, !tbaa !5
  %61 = call i32 @beforeNextClient(ptr noundef %60)
  br label %3, !llvm.loop !79

62:                                               ; preds = %3
  call void @llvm.lifetime.end.p0(i64 8, ptr %2) #8
  call void @llvm.lifetime.end.p0(i64 8, ptr %1) #8
  ret void
}