; Function Attrs: nounwind uwtable
define dso_local void @processUnblockedClients() local_unnamed_addr #0 {
  %1 = load ptr, ptr getelementptr inbounds nuw (i8, ptr @server, i64 7632), align 8, !tbaa !70
  %2 = getelementptr inbounds nuw i8, ptr %1, i64 40
  %3 = load i64, ptr %2, align 8, !tbaa !71
  %.not15 = icmp eq i64 %3, 0
  br i1 %.not15, label %._crit_edge, label %.lr.ph

.lr.ph:                                           ; preds = %0, %.backedge
  %4 = phi ptr [ %17, %.backedge ], [ %1, %0 ]
  %5 = load ptr, ptr %4, align 8, !tbaa !73
  %.not11 = icmp eq ptr %5, null
  br i1 %.not11, label %6, label %7, !prof !74

6:                                                ; preds = %.lr.ph
  tail call void @_serverAssert(ptr noundef nonnull @.str.3, ptr noundef nonnull @.str.1, i32 noundef 111) #5
  tail call void @abort() #6
  unreachable

7:                                                ; preds = %.lr.ph
  %8 = getelementptr inbounds nuw i8, ptr %5, i64 16
  %9 = load ptr, ptr %8, align 8, !tbaa !75
  tail call void @listDelNode(ptr noundef nonnull %4, ptr noundef nonnull %5) #5
  %10 = getelementptr inbounds nuw i8, ptr %9, i64 8
  %11 = load i64, ptr %10, align 8, !tbaa !34
  %12 = and i64 %11, -129
  store i64 %12, ptr %10, align 8, !tbaa !34
  %13 = and i64 %11, 134217728
  %.not12 = icmp eq i64 %13, 0
  %14 = and i64 %11, 16
  %.not13 = icmp eq i64 %14, 0
  br i1 %.not12, label %20, label %15

15:                                               ; preds = %7
  br i1 %.not13, label %16, label %.backedge

16:                                               ; preds = %15
  tail call void @moduleCallCommandUnblockedHandler(ptr noundef nonnull %9) #5
  br label %.backedge

.backedge:                                        ; preds = %15, %16, %24
  %17 = load ptr, ptr getelementptr inbounds nuw (i8, ptr @server, i64 7632), align 8, !tbaa !70
  %18 = getelementptr inbounds nuw i8, ptr %17, i64 40
  %19 = load i64, ptr %18, align 8, !tbaa !71
  %.not = icmp eq i64 %19, 0
  br i1 %.not, label %._crit_edge, label %.lr.ph, !llvm.loop !76

20:                                               ; preds = %7
  br i1 %.not13, label %21, label %24

21:                                               ; preds = %20
  %22 = tail call i32 @processPendingCommandAndInputBuffer(ptr noundef nonnull %9) #5
  %23 = icmp eq i32 %22, -1
  %spec.select = select i1 %23, ptr null, ptr %9
  br label %24

24:                                               ; preds = %21, %20
  %.0 = phi ptr [ %9, %20 ], [ %spec.select, %21 ]
  %25 = tail call i32 @beforeNextClient(ptr noundef %.0) #5
  br label %.backedge

._crit_edge:                                      ; preds = %.backedge, %0
  ret void
}